target datalayout = "e-m:e-p270:32:32-p271:32:32-p272:64:64-i64:64-i128:128-f80:128-n8:16:32:64-S128"
target triple = "x86_64-pc-linux-gnu"

%struct.lean_object = type { i32, i32 }

@l___private_Lean_Meta_Tactic_Grind_Internalize_0__Lean_Meta_Grind_pushCastHEqs___lambda__3___closed__2 = internal global ptr null, align 8

; Function Attrs: inlinehint nounwind uwtable
define internal zeroext i1 @lean_is_st(ptr noundef %0) #0 {
  %2 = alloca ptr, align 8
  store ptr %0, ptr %2, align 8, !tbaa !8
  %3 = load ptr, ptr %2, align 8, !tbaa !8
  %4 = getelementptr inbounds nuw %struct.lean_object, ptr %3, i32 0, i32 0
  %5 = load i32, ptr %4, align 4, !tbaa !15
  %6 = icmp sgt i32 %5, 0
  ret i1 %6
}

; Function Attrs: inlinehint nounwind uwtable
define internal void @lean_inc_ref(ptr noundef %0) #0 {
  %2 = alloca ptr, align 8
  store ptr %0, ptr %2, align 8, !tbaa !8
  %3 = load ptr, ptr %2, align 8, !tbaa !8
  %4 = call zeroext i1 @lean_is_st(ptr noundef %3)
  %5 = zext i1 %4 to i64
  %6 = call i64 @llvm.expect.i64(i64 %5, i64 1)
  %7 = icmp ne i64 %6, 0
  br i1 %7, label %8, label %13

8:                                                ; preds = %1
  %9 = load ptr, ptr %2, align 8, !tbaa !8
  %10 = getelementptr inbounds nuw %struct.lean_object, ptr %9, i32 0, i32 0
  %11 = load i32, ptr %10, align 4, !tbaa !15
  %12 = add i32 %11, 1
  store i32 %12, ptr %10, align 4, !tbaa !15
  br label %21

13:                                               ; preds = %1
  %14 = load ptr, ptr %2, align 8, !tbaa !8
  %15 = getelementptr inbounds nuw %struct.lean_object, ptr %14, i32 0, i32 0
  %16 = load i32, ptr %15, align 4, !tbaa !15
  %17 = icmp ne i32 %16, 0
  br i1 %17, label %18, label %20

18:                                               ; preds = %13
  %19 = load ptr, ptr %2, align 8, !tbaa !8
  call void @lean_inc_ref_cold(ptr noundef %19)
  br label %20

20:                                               ; preds = %18, %13
  br label %21

21:                                               ; preds = %20, %8
  ret void
}

; Function Attrs: alwaysinline nounwind uwtable
define internal zeroext i1 @lean_is_scalar(ptr noundef %0) #1 {
  %2 = alloca ptr, align 8
  store ptr %0, ptr %2, align 8, !tbaa !8
  %3 = load ptr, ptr %2, align 8, !tbaa !8
  %4 = ptrtoint ptr %3 to i64
  %5 = and i64 %4, 1
  %6 = icmp eq i64 %5, 1
  ret i1 %6
}

; Function Attrs: alwaysinline nounwind uwtable
define internal void @lean_inc(ptr noundef %0) #1 {
  %2 = alloca ptr, align 8
  store ptr %0, ptr %2, align 8, !tbaa !8
  %3 = load ptr, ptr %2, align 8, !tbaa !8
  %4 = call zeroext i1 @lean_is_scalar(ptr noundef %3)
  br i1 %4, label %7, label %5

5:                                                ; preds = %1
  %6 = load ptr, ptr %2, align 8, !tbaa !8
  call void @lean_inc_ref(ptr noundef %6)
  br label %7

7:                                                ; preds = %5, %1
  ret void
}

; Function Attrs: nounwind uwtable
define ptr @l___private_Lean_Meta_Tactic_Grind_Internalize_0__Lean_Meta_Grind_pushCastHEqs___lambda__3(ptr noundef %0, ptr noundef %1, ptr noundef %2, ptr noundef %3, ptr noundef %4, ptr noundef %5, ptr noundef %6, ptr noundef %7, ptr noundef %8, ptr noundef %9, ptr noundef %10, ptr noundef %11, ptr noundef %12, ptr noundef %13, ptr noundef %14, ptr noundef %15, ptr noundef %16) #2 {
  %18 = alloca ptr, align 8
  %19 = alloca ptr, align 8
  %20 = alloca ptr, align 8
  %21 = alloca ptr, align 8
  %22 = alloca ptr, align 8
  %23 = alloca ptr, align 8
  %24 = alloca ptr, align 8
  %25 = alloca ptr, align 8
  %26 = alloca ptr, align 8
  %27 = alloca ptr, align 8
  %28 = alloca ptr, align 8
  %29 = alloca ptr, align 8
  %30 = alloca ptr, align 8
  %31 = alloca ptr, align 8
  %32 = alloca ptr, align 8
  %33 = alloca ptr, align 8
  %34 = alloca ptr, align 8
  %35 = alloca ptr, align 8
  %36 = alloca ptr, align 8
  %37 = alloca ptr, align 8
  %38 = alloca ptr, align 8
  %39 = alloca i8, align 1
  %40 = alloca ptr, align 8
  store ptr %0, ptr %18, align 8, !tbaa !8
  store ptr %1, ptr %19, align 8, !tbaa !8
  store ptr %2, ptr %20, align 8, !tbaa !8
  store ptr %3, ptr %21, align 8, !tbaa !8
  store ptr %4, ptr %22, align 8, !tbaa !8
  store ptr %5, ptr %23, align 8, !tbaa !8
  store ptr %6, ptr %24, align 8, !tbaa !8
  store ptr %7, ptr %25, align 8, !tbaa !8
  store ptr %8, ptr %26, align 8, !tbaa !8
  store ptr %9, ptr %27, align 8, !tbaa !8
  store ptr %10, ptr %28, align 8, !tbaa !8
  store ptr %11, ptr %29, align 8, !tbaa !8
  store ptr %12, ptr %30, align 8, !tbaa !8
  store ptr %13, ptr %31, align 8, !tbaa !8
  store ptr %14, ptr %32, align 8, !tbaa !8
  store ptr %15, ptr %33, align 8, !tbaa !8
  store ptr %16, ptr %34, align 8, !tbaa !8
  br label %41

41:                                               ; preds = %17
  call void @llvm.lifetime.start.p0(i64 8, ptr %35) #7
  call void @llvm.lifetime.start.p0(i64 8, ptr %36) #7
  call void @llvm.lifetime.start.p0(i64 8, ptr %37) #7
  call void @llvm.lifetime.start.p0(i64 8, ptr %38) #7
  call void @llvm.lifetime.start.p0(i64 1, ptr %39) #7
  call void @llvm.lifetime.start.p0(i64 8, ptr %40) #7
  %42 = load ptr, ptr %19, align 8, !tbaa !8
  %43 = call ptr @l_Lean_Expr_constLevels_x21(ptr noundef %42)
  store ptr %43, ptr %35, align 8, !tbaa !8
  %44 = load ptr, ptr @l___private_Lean_Meta_Tactic_Grind_Internalize_0__Lean_Meta_Grind_pushCastHEqs___lambda__3___closed__2, align 8, !tbaa !8
  store ptr %44, ptr %36, align 8, !tbaa !8
  %45 = load ptr, ptr %36, align 8, !tbaa !8
  %46 = load ptr, ptr %35, align 8, !tbaa !8
  %47 = call ptr @l_Lean_Expr_const___override(ptr noundef %45, ptr noundef %46)
  store ptr %47, ptr %37, align 8, !tbaa !8
  %48 = load ptr, ptr %23, align 8, !tbaa !8
  call void @lean_inc(ptr noundef %48)
  %49 = load ptr, ptr %37, align 8, !tbaa !8
  %50 = load ptr, ptr %20, align 8, !tbaa !8
  %51 = load ptr, ptr %21, align 8, !tbaa !8
  %52 = load ptr, ptr %22, align 8, !tbaa !8
  %53 = load ptr, ptr %23, align 8, !tbaa !8
  %54 = load ptr, ptr %24, align 8, !tbaa !8
  %55 = load ptr, ptr %25, align 8, !tbaa !8
  %56 = call ptr @l_Lean_mkApp6(ptr noundef %49, ptr noundef %50, ptr noundef %51, ptr noundef %52, ptr noundef %53, ptr noundef %54, ptr noundef %55)
  store ptr %56, ptr %38, align 8, !tbaa !8
  store i8 1, ptr %39, align 1, !tbaa !12
  %57 = load ptr, ptr %18, align 8, !tbaa !8
  %58 = load ptr, ptr %23, align 8, !tbaa !8
  %59 = load ptr, ptr %38, align 8, !tbaa !8
  %60 = load i8, ptr %39, align 1, !tbaa !12
  %61 = load ptr, ptr %26, align 8, !tbaa !8
  %62 = load ptr, ptr %27, align 8, !tbaa !8
  %63 = load ptr, ptr %28, align 8, !tbaa !8
  %64 = load ptr, ptr %29, align 8, !tbaa !8
  %65 = load ptr, ptr %30, align 8, !tbaa !8
  %66 = load ptr, ptr %31, align 8, !tbaa !8
  %67 = load ptr, ptr %32, align 8, !tbaa !8
  %68 = load ptr, ptr %33, align 8, !tbaa !8
  %69 = load ptr, ptr %34, align 8, !tbaa !8
  %70 = call ptr @l_Lean_Meta_Grind_pushEqCore(ptr noundef %57, ptr noundef %58, ptr noundef %59, i8 noundef zeroext %60, ptr noundef %61, ptr noundef %62, ptr noundef %63, ptr noundef %64, ptr noundef %65, ptr noundef %66, ptr noundef %67, ptr noundef %68, ptr noundef %69)
  store ptr %70, ptr %40, align 8, !tbaa !8
  %71 = load ptr, ptr %40, align 8, !tbaa !8
  call void @llvm.lifetime.end.p0(i64 8, ptr %40) #7
  call void @llvm.lifetime.end.p0(i64 1, ptr %39) #7
  call void @llvm.lifetime.end.p0(i64 8, ptr %38) #7
  call void @llvm.lifetime.end.p0(i64 8, ptr %37) #7
  call void @llvm.lifetime.end.p0(i64 8, ptr %36) #7
  call void @llvm.lifetime.end.p0(i64 8, ptr %35) #7
  ret ptr %71
}